; Function Attrs: nounwind uwtable
define ptr @l_List_repr___at___private_Lean_Data_KVMap_0__Lean_reprKVMap____x40_Lean_Data_KVMap___hyg_920____spec__1___boxed(ptr noundef %0, ptr noundef %1) local_unnamed_addr #0 {
  %3 = tail call ptr @l_List_repr___at___private_Lean_Data_KVMap_0__Lean_reprKVMap____x40_Lean_Data_KVMap___hyg_920____spec__1(ptr noundef %0, ptr poison)
  %4 = ptrtoint ptr %1 to i64
  %5 = and i64 %4, 1
  %.not = icmp eq i64 %5, 0
  br i1 %.not, label %6, label %lean_dec.exit

6:                                                ; preds = %2
  %7 = load i32, ptr %1, align 4, !tbaa !8
  %8 = icmp sgt i32 %7, 1
  br i1 %8, label %9, label %11, !prof !11

9:                                                ; preds = %6
  %10 = add nsw i32 %7, -1
  store i32 %10, ptr %1, align 4, !tbaa !8
  br label %lean_dec.exit

11:                                               ; preds = %6
  %.not.i = icmp eq i32 %7, 0
  br i1 %.not.i, label %lean_dec.exit, label %12

12:                                               ; preds = %11
  tail call void @lean_dec_ref_cold(ptr noundef nonnull %1) #6
  br label %lean_dec.exit

lean_dec.exit:                                    ; preds = %12, %11, %9, %2
  ret ptr %3
}